; Function Attrs: null_pointer_is_valid sspstrong uwtable
define internal i32 @iremotewinspool_dissect_element_winspool_AsyncEnumPrinterDrivers_pName_(ptr noundef %0, i32 noundef %1, ptr noundef %2, ptr noundef %3, ptr noundef %4, ptr noundef %5) #0 {
  %7 = alloca ptr, align 8
  call void @llvm.lifetime.start.p0(i64 8, ptr nonnull %7) #3
  %8 = load i32, ptr @hf_iremotewinspool_winspool_AsyncEnumPrinterDrivers_pName, align 4
  %9 = call i32 @dissect_ndr_cvstring(ptr noundef %0, i32 noundef %1, ptr noundef %2, ptr noundef %3, ptr noundef %4, ptr noundef %5, i32 noundef 2, i32 noundef %8, i1 noundef zeroext false, ptr noundef nonnull %7)
  %10 = load ptr, ptr %7, align 8
  call void (ptr, ptr, ...) @proto_item_append_text(ptr noundef %3, ptr noundef nonnull @.str.514, ptr noundef %10)
  call void @llvm.lifetime.end.p0(i64 8, ptr nonnull %7) #3
  ret i32 %9
}